target datalayout = "e-m:e-p270:32:32-p271:32:32-p272:64:64-i64:64-i128:128-f80:128-n8:16:32:64-S128"
target triple = "x86_64-pc-linux-gnu"

%struct.Vec_Int_t_ = type { i32, i32, ptr }
%struct.Vec_Wec_t_ = type { i32, i32, ptr }

@.str.4 = private unnamed_addr constant [28 x i8] c"Printing %d shared levels:\0A\00", align 1
@.str.5 = private unnamed_addr constant [51 x i8] c"Level = %3d. One = %6d. Two = %6d.  Common = %6d.\0A\00", align 1

; Function Attrs: inlinehint nounwind uwtable
define internal void @Vec_IntFree(ptr noundef %0) #2 {
  %2 = alloca ptr, align 8
  store ptr %0, ptr %2, align 8, !tbaa !36
  %3 = load ptr, ptr %2, align 8, !tbaa !36
  %4 = getelementptr inbounds nuw %struct.Vec_Int_t_, ptr %3, i32 0, i32 2
  %5 = load ptr, ptr %4, align 8, !tbaa !40
  %6 = icmp ne ptr %5, null
  br i1 %6, label %7, label %13

7:                                                ; preds = %1
  %8 = load ptr, ptr %2, align 8, !tbaa !36
  %9 = getelementptr inbounds nuw %struct.Vec_Int_t_, ptr %8, i32 0, i32 2
  %10 = load ptr, ptr %9, align 8, !tbaa !40
  call void @free(ptr noundef %10) #11
  %11 = load ptr, ptr %2, align 8, !tbaa !36
  %12 = getelementptr inbounds nuw %struct.Vec_Int_t_, ptr %11, i32 0, i32 2
  store ptr null, ptr %12, align 8, !tbaa !40
  br label %14

13:                                               ; preds = %1
  br label %14

14:                                               ; preds = %13, %7
  %15 = load ptr, ptr %2, align 8, !tbaa !36
  %16 = icmp ne ptr %15, null
  br i1 %16, label %17, label %19

17:                                               ; preds = %14
  %18 = load ptr, ptr %2, align 8, !tbaa !36
  call void @free(ptr noundef %18) #11
  store ptr null, ptr %2, align 8, !tbaa !36
  br label %20

19:                                               ; preds = %14
  br label %20

20:                                               ; preds = %19, %17
  ret void
}

; Function Attrs: inlinehint nounwind uwtable
define internal i32 @Vec_IntSize(ptr noundef %0) #2 {
  %2 = alloca ptr, align 8
  store ptr %0, ptr %2, align 8, !tbaa !36
  %3 = load ptr, ptr %2, align 8, !tbaa !36
  %4 = getelementptr inbounds nuw %struct.Vec_Int_t_, ptr %3, i32 0, i32 1
  %5 = load i32, ptr %4, align 4, !tbaa !38
  ret i32 %5
}

; Function Attrs: inlinehint nounwind uwtable
define internal i32 @Vec_IntTwoCountCommon(ptr noundef %0, ptr noundef %1) #2 {
  %3 = alloca ptr, align 8
  %4 = alloca ptr, align 8
  %5 = alloca ptr, align 8
  %6 = alloca ptr, align 8
  %7 = alloca ptr, align 8
  %8 = alloca ptr, align 8
  %9 = alloca i32, align 4
  store ptr %0, ptr %3, align 8, !tbaa !36
  store ptr %1, ptr %4, align 8, !tbaa !36
  call void @llvm.lifetime.start.p0(i64 8, ptr %5) #11
  %10 = load ptr, ptr %3, align 8, !tbaa !36
  %11 = getelementptr inbounds nuw %struct.Vec_Int_t_, ptr %10, i32 0, i32 2
  %12 = load ptr, ptr %11, align 8, !tbaa !40
  store ptr %12, ptr %5, align 8, !tbaa !47
  call void @llvm.lifetime.start.p0(i64 8, ptr %6) #11
  %13 = load ptr, ptr %4, align 8, !tbaa !36
  %14 = getelementptr inbounds nuw %struct.Vec_Int_t_, ptr %13, i32 0, i32 2
  %15 = load ptr, ptr %14, align 8, !tbaa !40
  store ptr %15, ptr %6, align 8, !tbaa !47
  call void @llvm.lifetime.start.p0(i64 8, ptr %7) #11
  %16 = load ptr, ptr %3, align 8, !tbaa !36
  %17 = getelementptr inbounds nuw %struct.Vec_Int_t_, ptr %16, i32 0, i32 2
  %18 = load ptr, ptr %17, align 8, !tbaa !40
  %19 = load ptr, ptr %3, align 8, !tbaa !36
  %20 = getelementptr inbounds nuw %struct.Vec_Int_t_, ptr %19, i32 0, i32 1
  %21 = load i32, ptr %20, align 4, !tbaa !38
  %22 = sext i32 %21 to i64
  %23 = getelementptr inbounds i32, ptr %18, i64 %22
  store ptr %23, ptr %7, align 8, !tbaa !47
  call void @llvm.lifetime.start.p0(i64 8, ptr %8) #11
  %24 = load ptr, ptr %4, align 8, !tbaa !36
  %25 = getelementptr inbounds nuw %struct.Vec_Int_t_, ptr %24, i32 0, i32 2
  %26 = load ptr, ptr %25, align 8, !tbaa !40
  %27 = load ptr, ptr %4, align 8, !tbaa !36
  %28 = getelementptr inbounds nuw %struct.Vec_Int_t_, ptr %27, i32 0, i32 1
  %29 = load i32, ptr %28, align 4, !tbaa !38
  %30 = sext i32 %29 to i64
  %31 = getelementptr inbounds i32, ptr %26, i64 %30
  store ptr %31, ptr %8, align 8, !tbaa !47
  call void @llvm.lifetime.start.p0(i64 4, ptr %9) #11
  store i32 0, ptr %9, align 4, !tbaa !8
  br label %32

32:                                               ; preds = %68, %2
  %33 = load ptr, ptr %5, align 8, !tbaa !47
  %34 = load ptr, ptr %7, align 8, !tbaa !47
  %35 = icmp ult ptr %33, %34
  br i1 %35, label %36, label %40

36:                                               ; preds = %32
  %37 = load ptr, ptr %6, align 8, !tbaa !47
  %38 = load ptr, ptr %8, align 8, !tbaa !47
  %39 = icmp ult ptr %37, %38
  br label %40

40:                                               ; preds = %36, %32
  %41 = phi i1 [ false, %32 ], [ %39, %36 ]
  br i1 %41, label %42, label %69

42:                                               ; preds = %40
  %43 = load ptr, ptr %5, align 8, !tbaa !47
  %44 = load i32, ptr %43, align 4, !tbaa !8
  %45 = load ptr, ptr %6, align 8, !tbaa !47
  %46 = load i32, ptr %45, align 4, !tbaa !8
  %47 = icmp eq i32 %44, %46
  br i1 %47, label %48, label %55

48:                                               ; preds = %42
  %49 = load ptr, ptr %5, align 8, !tbaa !47
  %50 = getelementptr inbounds nuw i32, ptr %49, i32 1
  store ptr %50, ptr %5, align 8, !tbaa !47
  %51 = load ptr, ptr %6, align 8, !tbaa !47
  %52 = getelementptr inbounds nuw i32, ptr %51, i32 1
  store ptr %52, ptr %6, align 8, !tbaa !47
  %53 = load i32, ptr %9, align 4, !tbaa !8
  %54 = add nsw i32 %53, 1
  store i32 %54, ptr %9, align 4, !tbaa !8
  br label %68

55:                                               ; preds = %42
  %56 = load ptr, ptr %5, align 8, !tbaa !47
  %57 = load i32, ptr %56, align 4, !tbaa !8
  %58 = load ptr, ptr %6, align 8, !tbaa !47
  %59 = load i32, ptr %58, align 4, !tbaa !8
  %60 = icmp slt i32 %57, %59
  br i1 %60, label %61, label %64

61:                                               ; preds = %55
  %62 = load ptr, ptr %5, align 8, !tbaa !47
  %63 = getelementptr inbounds nuw i32, ptr %62, i32 1
  store ptr %63, ptr %5, align 8, !tbaa !47
  br label %67

64:                                               ; preds = %55
  %65 = load ptr, ptr %6, align 8, !tbaa !47
  %66 = getelementptr inbounds nuw i32, ptr %65, i32 1
  store ptr %66, ptr %6, align 8, !tbaa !47
  br label %67

67:                                               ; preds = %64, %61
  br label %68

68:                                               ; preds = %67, %48
  br label %32, !llvm.loop !61

69:                                               ; preds = %40
  %70 = load i32, ptr %9, align 4, !tbaa !8
  call void @llvm.lifetime.end.p0(i64 4, ptr %9) #11
  call void @llvm.lifetime.end.p0(i64 8, ptr %8) #11
  call void @llvm.lifetime.end.p0(i64 8, ptr %7) #11
  call void @llvm.lifetime.end.p0(i64 8, ptr %6) #11
  call void @llvm.lifetime.end.p0(i64 8, ptr %5) #11
  ret i32 %70
}

; Function Attrs: inlinehint nounwind uwtable
define internal void @Vec_IntSort(ptr noundef %0, i32 noundef %1) #2 {
  %3 = alloca ptr, align 8
  %4 = alloca i32, align 4
  store ptr %0, ptr %3, align 8, !tbaa !36
  store i32 %1, ptr %4, align 4, !tbaa !8
  %5 = load i32, ptr %4, align 4, !tbaa !8
  %6 = icmp ne i32 %5, 0
  br i1 %6, label %7, label %15

7:                                                ; preds = %2
  %8 = load ptr, ptr %3, align 8, !tbaa !36
  %9 = getelementptr inbounds nuw %struct.Vec_Int_t_, ptr %8, i32 0, i32 2
  %10 = load ptr, ptr %9, align 8, !tbaa !40
  %11 = load ptr, ptr %3, align 8, !tbaa !36
  %12 = getelementptr inbounds nuw %struct.Vec_Int_t_, ptr %11, i32 0, i32 1
  %13 = load i32, ptr %12, align 4, !tbaa !38
  %14 = sext i32 %13 to i64
  call void @qsort(ptr noundef %10, i64 noundef %14, i64 noundef 4, ptr noundef @Vec_IntSortCompare2)
  br label %23

15:                                               ; preds = %2
  %16 = load ptr, ptr %3, align 8, !tbaa !36
  %17 = getelementptr inbounds nuw %struct.Vec_Int_t_, ptr %16, i32 0, i32 2
  %18 = load ptr, ptr %17, align 8, !tbaa !40
  %19 = load ptr, ptr %3, align 8, !tbaa !36
  %20 = getelementptr inbounds nuw %struct.Vec_Int_t_, ptr %19, i32 0, i32 1
  %21 = load i32, ptr %20, align 4, !tbaa !38
  %22 = sext i32 %21 to i64
  call void @qsort(ptr noundef %18, i64 noundef %22, i64 noundef 4, ptr noundef @Vec_IntSortCompare1)
  br label %23

23:                                               ; preds = %15, %7
  ret void
}

; Function Attrs: inlinehint nounwind uwtable
define internal ptr @Vec_WecEntry(ptr noundef %0, i32 noundef %1) #2 {
  %3 = alloca ptr, align 8
  %4 = alloca i32, align 4
  store ptr %0, ptr %3, align 8, !tbaa !50
  store i32 %1, ptr %4, align 4, !tbaa !8
  %5 = load ptr, ptr %3, align 8, !tbaa !50
  %6 = getelementptr inbounds nuw %struct.Vec_Wec_t_, ptr %5, i32 0, i32 2
  %7 = load ptr, ptr %6, align 8, !tbaa !56
  %8 = load i32, ptr %4, align 4, !tbaa !8
  %9 = sext i32 %8 to i64
  %10 = getelementptr inbounds %struct.Vec_Int_t_, ptr %7, i64 %9
  ret ptr %10
}

; Function Attrs: inlinehint nounwind uwtable
define internal i32 @Abc_MinInt(i32 noundef %0, i32 noundef %1) #2 {
  %3 = alloca i32, align 4
  %4 = alloca i32, align 4
  store i32 %0, ptr %3, align 4, !tbaa !8
  store i32 %1, ptr %4, align 4, !tbaa !8
  %5 = load i32, ptr %3, align 4, !tbaa !8
  %6 = load i32, ptr %4, align 4, !tbaa !8
  %7 = icmp slt i32 %5, %6
  br i1 %7, label %8, label %10

8:                                                ; preds = %2
  %9 = load i32, ptr %3, align 4, !tbaa !8
  br label %12

10:                                               ; preds = %2
  %11 = load i32, ptr %4, align 4, !tbaa !8
  br label %12

12:                                               ; preds = %10, %8
  %13 = phi i32 [ %9, %8 ], [ %11, %10 ]
  ret i32 %13
}

; Function Attrs: inlinehint nounwind uwtable
define internal i32 @Vec_WecSize(ptr noundef %0) #2 {
  %2 = alloca ptr, align 8
  store ptr %0, ptr %2, align 8, !tbaa !50
  %3 = load ptr, ptr %2, align 8, !tbaa !50
  %4 = getelementptr inbounds nuw %struct.Vec_Wec_t_, ptr %3, i32 0, i32 1
  %5 = load i32, ptr %4, align 4, !tbaa !54
  ret i32 %5
}

; Function Attrs: nounwind uwtable
define void @Gia_IsoCompareVecs(ptr noundef %0, ptr noundef %1, ptr noundef %2, ptr noundef %3) #0 {
  %5 = alloca ptr, align 8
  %6 = alloca ptr, align 8
  %7 = alloca ptr, align 8
  %8 = alloca ptr, align 8
  %9 = alloca i32, align 4
  %10 = alloca i32, align 4
  %11 = alloca i32, align 4
  %12 = alloca ptr, align 8
  %13 = alloca ptr, align 8
  %14 = alloca ptr, align 8
  %15 = alloca ptr, align 8
  store ptr %0, ptr %5, align 8, !tbaa !3
  store ptr %1, ptr %6, align 8, !tbaa !50
  store ptr %2, ptr %7, align 8, !tbaa !3
  store ptr %3, ptr %8, align 8, !tbaa !50
  call void @llvm.lifetime.start.p0(i64 4, ptr %9) #11
  call void @llvm.lifetime.start.p0(i64 4, ptr %10) #11
  call void @llvm.lifetime.start.p0(i64 4, ptr %11) #11
  %16 = load ptr, ptr %6, align 8, !tbaa !50
  %17 = call i32 @Vec_WecSize(ptr noundef %16)
  %18 = load ptr, ptr %8, align 8, !tbaa !50
  %19 = call i32 @Vec_WecSize(ptr noundef %18)
  %20 = call i32 @Abc_MinInt(i32 noundef %17, i32 noundef %19)
  store i32 %20, ptr %11, align 4, !tbaa !8
  %21 = load ptr, ptr %5, align 8, !tbaa !3
  call void @Gia_ManPrintStats(ptr noundef %21, ptr noundef null)
  %22 = load ptr, ptr %7, align 8, !tbaa !3
  call void @Gia_ManPrintStats(ptr noundef %22, ptr noundef null)
  %23 = load i32, ptr %11, align 4, !tbaa !8
  %24 = call i32 (ptr, ...) @printf(ptr noundef @.str.4, i32 noundef %23)
  store i32 0, ptr %9, align 4, !tbaa !8
  br label %25

25:                                               ; preds = %60, %4
  %26 = load i32, ptr %9, align 4, !tbaa !8
  %27 = load i32, ptr %11, align 4, !tbaa !8
  %28 = icmp slt i32 %26, %27
  br i1 %28, label %29, label %63

29:                                               ; preds = %25
  call void @llvm.lifetime.start.p0(i64 8, ptr %12) #11
  %30 = load ptr, ptr %6, align 8, !tbaa !50
  %31 = load i32, ptr %9, align 4, !tbaa !8
  %32 = call ptr @Vec_WecEntry(ptr noundef %30, i32 noundef %31)
  store ptr %32, ptr %12, align 8, !tbaa !36
  call void @llvm.lifetime.start.p0(i64 8, ptr %13) #11
  %33 = load ptr, ptr %8, align 8, !tbaa !50
  %34 = load i32, ptr %9, align 4, !tbaa !8
  %35 = call ptr @Vec_WecEntry(ptr noundef %33, i32 noundef %34)
  store ptr %35, ptr %13, align 8, !tbaa !36
  call void @llvm.lifetime.start.p0(i64 8, ptr %14) #11
  %36 = load ptr, ptr %5, align 8, !tbaa !3
  %37 = load ptr, ptr %12, align 8, !tbaa !36
  %38 = call ptr @Gia_IsoCollectData(ptr noundef %36, ptr noundef %37)
  store ptr %38, ptr %14, align 8, !tbaa !36
  call void @llvm.lifetime.start.p0(i64 8, ptr %15) #11
  %39 = load ptr, ptr %7, align 8, !tbaa !3
  %40 = load ptr, ptr %13, align 8, !tbaa !36
  %41 = call ptr @Gia_IsoCollectData(ptr noundef %39, ptr noundef %40)
  store ptr %41, ptr %15, align 8, !tbaa !36
  %42 = load ptr, ptr %14, align 8, !tbaa !36
  call void @Vec_IntSort(ptr noundef %42, i32 noundef 0)
  %43 = load ptr, ptr %15, align 8, !tbaa !36
  call void @Vec_IntSort(ptr noundef %43, i32 noundef 0)
  %44 = load ptr, ptr %14, align 8, !tbaa !36
  %45 = load ptr, ptr %15, align 8, !tbaa !36
  %46 = call i32 @Vec_IntTwoCountCommon(ptr noundef %44, ptr noundef %45)
  store i32 %46, ptr %10, align 4, !tbaa !8
  %47 = load i32, ptr %9, align 4, !tbaa !8
  %48 = load ptr, ptr %14, align 8, !tbaa !36
  %49 = call i32 @Vec_IntSize(ptr noundef %48)
  %50 = load i32, ptr %10, align 4, !tbaa !8
  %51 = sub nsw i32 %49, %50
  %52 = load ptr, ptr %15, align 8, !tbaa !36
  %53 = call i32 @Vec_IntSize(ptr noundef %52)
  %54 = load i32, ptr %10, align 4, !tbaa !8
  %55 = sub nsw i32 %53, %54
  %56 = load i32, ptr %10, align 4, !tbaa !8
  %57 = call i32 (ptr, ...) @printf(ptr noundef @.str.5, i32 noundef %47, i32 noundef %51, i32 noundef %55, i32 noundef %56)
  %58 = load ptr, ptr %14, align 8, !tbaa !36
  call void @Vec_IntFree(ptr noundef %58)
  %59 = load ptr, ptr %15, align 8, !tbaa !36
  call void @Vec_IntFree(ptr noundef %59)
  call void @llvm.lifetime.end.p0(i64 8, ptr %15) #11
  call void @llvm.lifetime.end.p0(i64 8, ptr %14) #11
  call void @llvm.lifetime.end.p0(i64 8, ptr %13) #11
  call void @llvm.lifetime.end.p0(i64 8, ptr %12) #11
  br label %60

60:                                               ; preds = %29
  %61 = load i32, ptr %9, align 4, !tbaa !8
  %62 = add nsw i32 %61, 1
  store i32 %62, ptr %9, align 4, !tbaa !8
  br label %25, !llvm.loop !60

63:                                               ; preds = %25
  call void @llvm.lifetime.end.p0(i64 4, ptr %11) #11
  call void @llvm.lifetime.end.p0(i64 4, ptr %10) #11
  call void @llvm.lifetime.end.p0(i64 4, ptr %9) #11
  ret void
}