; Function Attrs: nounwind uwtable
define void @Gia_IsoCompareVecs(ptr noundef %0, ptr noundef readonly captures(none) %1, ptr noundef %2, ptr noundef readonly captures(none) %3) local_unnamed_addr #2 {
  %5 = getelementptr i8, ptr %1, i64 4
  %.val33 = load i32, ptr %5, align 4, !tbaa !48
  %6 = getelementptr i8, ptr %3, i64 4
  %.val32 = load i32, ptr %6, align 4, !tbaa !48
  %7 = tail call noundef i32 @llvm.smin.i32(i32 %.val33, i32 %.val32)
  tail call void @Gia_ManPrintStats(ptr noundef %0, ptr noundef null) #19
  tail call void @Gia_ManPrintStats(ptr noundef %2, ptr noundef null) #19
  %8 = tail call i32 (ptr, ...) @printf(ptr noundef nonnull dereferenceable(1) @.str.4, i32 noundef %7)
  %9 = icmp sgt i32 %7, 0
  br i1 %9, label %.lr.ph, label %._crit_edge

.lr.ph:                                           ; preds = %4
  %10 = getelementptr i8, ptr %1, i64 8
  %11 = getelementptr i8, ptr %3, i64 8
  %wide.trip.count = zext nneg i32 %7 to i64
  br label %12

12:                                               ; preds = %.lr.ph, %Vec_IntFree.exit41
  %indvars.iv = phi i64 [ 0, %.lr.ph ], [ %indvars.iv.next, %Vec_IntFree.exit41 ]
  %.val35 = load ptr, ptr %10, align 8, !tbaa !50
  %13 = getelementptr inbounds nuw %struct.Vec_Int_t_, ptr %.val35, i64 %indvars.iv
  %.val34 = load ptr, ptr %11, align 8, !tbaa !50
  %14 = getelementptr inbounds nuw %struct.Vec_Int_t_, ptr %.val34, i64 %indvars.iv
  %15 = tail call ptr @Gia_IsoCollectData(ptr noundef %0, ptr noundef %13)
  %16 = tail call ptr @Gia_IsoCollectData(ptr noundef %2, ptr noundef %14)
  %17 = getelementptr i8, ptr %15, i64 4
  %.val = load i32, ptr %17, align 4, !tbaa !36
  %18 = getelementptr i8, ptr %15, i64 8
  %.val27 = load ptr, ptr %18, align 8, !tbaa !34
  %19 = sext i32 %.val to i64
  tail call void @qsort(ptr noundef %.val27, i64 noundef %19, i64 noundef 4, ptr noundef nonnull @Vec_IntSortCompare1) #19
  %20 = getelementptr i8, ptr %16, i64 4
  %.val28 = load i32, ptr %20, align 4, !tbaa !36
  %21 = getelementptr i8, ptr %16, i64 8
  %.val29 = load ptr, ptr %21, align 8, !tbaa !34
  %22 = sext i32 %.val28 to i64
  tail call void @qsort(ptr noundef %.val29, i64 noundef %22, i64 noundef 4, ptr noundef nonnull @Vec_IntSortCompare1) #19
  %23 = getelementptr inbounds i32, ptr %.val27, i64 %19
  %24 = getelementptr inbounds i32, ptr %.val29, i64 %22
  %25 = icmp sgt i32 %.val, 0
  %26 = icmp sgt i32 %.val28, 0
  %27 = and i1 %25, %26
  br i1 %27, label %.lr.ph.i, label %Vec_IntTwoCountCommon.exit

.lr.ph.i:                                         ; preds = %12, %41
  %.07.i = phi i32 [ %.1.i, %41 ], [ 0, %12 ]
  %.0196.i = phi ptr [ %.120.i, %41 ], [ %.val27, %12 ]
  %.0215.i = phi ptr [ %.122.i, %41 ], [ %.val29, %12 ]
  %28 = load i32, ptr %.0196.i, align 4, !tbaa !29
  %29 = load i32, ptr %.0215.i, align 4, !tbaa !29
  %30 = icmp eq i32 %28, %29
  br i1 %30, label %31, label %35

31:                                               ; preds = %.lr.ph.i
  %32 = getelementptr inbounds nuw i8, ptr %.0196.i, i64 4
  %33 = getelementptr inbounds nuw i8, ptr %.0215.i, i64 4
  %34 = add nsw i32 %.07.i, 1
  br label %41

35:                                               ; preds = %.lr.ph.i
  %36 = icmp slt i32 %28, %29
  br i1 %36, label %37, label %39

37:                                               ; preds = %35
  %38 = getelementptr inbounds nuw i8, ptr %.0196.i, i64 4
  br label %41

39:                                               ; preds = %35
  %40 = getelementptr inbounds nuw i8, ptr %.0215.i, i64 4
  br label %41

41:                                               ; preds = %39, %37, %31
  %.122.i = phi ptr [ %33, %31 ], [ %.0215.i, %37 ], [ %40, %39 ]
  %.120.i = phi ptr [ %32, %31 ], [ %38, %37 ], [ %.0196.i, %39 ]
  %.1.i = phi i32 [ %34, %31 ], [ %.07.i, %37 ], [ %.07.i, %39 ]
  %42 = icmp ult ptr %.120.i, %23
  %43 = icmp ult ptr %.122.i, %24
  %44 = select i1 %42, i1 %43, i1 false
  br i1 %44, label %.lr.ph.i, label %Vec_IntTwoCountCommon.exit, !llvm.loop !59

Vec_IntTwoCountCommon.exit:                       ; preds = %41, %12
  %.0.lcssa.i = phi i32 [ 0, %12 ], [ %.1.i, %41 ]
  %45 = sub nsw i32 %.val, %.0.lcssa.i
  %46 = sub nsw i32 %.val28, %.0.lcssa.i
  %47 = trunc nuw nsw i64 %indvars.iv to i32
  %48 = tail call i32 (ptr, ...) @printf(ptr noundef nonnull dereferenceable(1) @.str.5, i32 noundef %47, i32 noundef %45, i32 noundef %46, i32 noundef %.0.lcssa.i)
  %.not.i = icmp eq ptr %.val27, null
  br i1 %.not.i, label %Vec_IntFree.exit, label %49

49:                                               ; preds = %Vec_IntTwoCountCommon.exit
  tail call void @free(ptr noundef nonnull %.val27) #19
  br label %Vec_IntFree.exit

Vec_IntFree.exit:                                 ; preds = %Vec_IntTwoCountCommon.exit, %49
  tail call void @free(ptr noundef nonnull %15) #19
  %.not.i40 = icmp eq ptr %.val29, null
  br i1 %.not.i40, label %Vec_IntFree.exit41, label %50

50:                                               ; preds = %Vec_IntFree.exit
  tail call void @free(ptr noundef nonnull %.val29) #19
  br label %Vec_IntFree.exit41

Vec_IntFree.exit41:                               ; preds = %Vec_IntFree.exit, %50
  tail call void @free(ptr noundef nonnull %16) #19
  %indvars.iv.next = add nuw nsw i64 %indvars.iv, 1
  %exitcond.not = icmp eq i64 %indvars.iv.next, %wide.trip.count
  br i1 %exitcond.not, label %._crit_edge, label %12, !llvm.loop !60

._crit_edge:                                      ; preds = %Vec_IntFree.exit41, %4
  ret void
}